target datalayout = "e-m:e-p270:32:32-p271:32:32-p272:64:64-i64:64-i128:128-f80:128-n8:16:32:64-S128"
target triple = "x86_64-pc-linux-gnu"

%"class.std::__cxx11::basic_string" = type { %"struct.std::__cxx11::basic_string<char>::_Alloc_hider", i64, %union.anon }
%"struct.std::__cxx11::basic_string<char>::_Alloc_hider" = type { ptr }
%union.anon = type { i64, [8 x i8] }
%"struct.Yosys::RTLIL::Const" = type { i16, i8, %union.anon.301 }
%union.anon.301 = type { %"class.std::__cxx11::basic_string" }

@_ZTISt12out_of_range = external constant ptr
@.str.126 = private unnamed_addr constant [37 x i8] c"Accessing non existing parameter %s\0A\00", align 1

; Function Attrs: mustprogress uwtable
define internal void @_ZN12_GLOBAL__N_113xilinx_dsp_pm5paramEPN5Yosys5RTLIL4CellENS2_8IdStringE(ptr dead_on_unwind noalias writable sret(%"struct.Yosys::RTLIL::Const") align 8 %0, ptr noundef nonnull align 8 dereferenceable(1636) %1, ptr noundef %2, ptr noundef %3) #4 align 2 personality ptr @__gxx_personality_v0 {
  %5 = alloca ptr, align 8
  %6 = alloca ptr, align 8
  %7 = alloca ptr, align 8
  %8 = alloca ptr, align 8
  %9 = alloca ptr, align 8
  %10 = alloca i32, align 4
  %11 = alloca ptr, align 8
  store ptr %0, ptr %5, align 8
  store ptr %1, ptr %6, align 8, !tbaa !84
  store ptr %2, ptr %7, align 8, !tbaa !61
  store ptr %3, ptr %8, align 8, !tbaa !337
  %12 = load ptr, ptr %7, align 8, !tbaa !61
  %13 = invoke noundef nonnull align 8 dereferenceable(40) ptr @_ZNK5Yosys5RTLIL4Cell8getParamERKNS0_8IdStringE(ptr noundef nonnull align 8 dereferenceable(192) %12, ptr noundef nonnull align 4 dereferenceable(4) %3)
          to label %14 unwind label %16

14:                                               ; preds = %4
  invoke void @_ZN5Yosys5RTLIL5ConstC1ERKS1_(ptr noundef nonnull align 8 dereferenceable(40) %0, ptr noundef nonnull align 8 dereferenceable(40) %13)
          to label %15 unwind label %16

15:                                               ; preds = %14
  ret void

16:                                               ; preds = %14, %4
  %17 = landingpad { ptr, i32 }
          catch ptr @_ZTISt12out_of_range
  %18 = extractvalue { ptr, i32 } %17, 0
  store ptr %18, ptr %9, align 8
  %19 = extractvalue { ptr, i32 } %17, 1
  store i32 %19, ptr %10, align 4
  br label %20

20:                                               ; preds = %16
  %21 = load i32, ptr %10, align 4
  %22 = call i32 @llvm.eh.typeid.for.p0(ptr @_ZTISt12out_of_range) #3
  %23 = icmp eq i32 %21, %22
  br i1 %23, label %24, label %36

24:                                               ; preds = %20
  call void @llvm.lifetime.start.p0(i64 8, ptr %11) #3
  %25 = load ptr, ptr %9, align 8
  %26 = call ptr @__cxa_begin_catch(ptr %25) #3
  store ptr %26, ptr %11, align 8
  %27 = invoke noundef ptr @_ZNK5Yosys5RTLIL8IdString5c_strEv(ptr noundef nonnull align 4 dereferenceable(4) %3)
          to label %28 unwind label %30

28:                                               ; preds = %24
  invoke void (ptr, ...) @_ZN5Yosys9log_errorEPKcz(ptr noundef @.str.126, ptr noundef %27) #19
          to label %29 unwind label %30

29:                                               ; preds = %28
  unreachable

30:                                               ; preds = %28, %24
  %31 = landingpad { ptr, i32 }
          cleanup
  %32 = extractvalue { ptr, i32 } %31, 0
  store ptr %32, ptr %9, align 8
  %33 = extractvalue { ptr, i32 } %31, 1
  store i32 %33, ptr %10, align 4
  invoke void @__cxa_end_catch()
          to label %34 unwind label %41

34:                                               ; preds = %30
  call void @llvm.lifetime.end.p0(i64 8, ptr %11) #3
  br label %36

35:                                               ; No predecessors!
  unreachable

36:                                               ; preds = %34, %20
  %37 = load ptr, ptr %9, align 8
  %38 = load i32, ptr %10, align 4
  %39 = insertvalue { ptr, i32 } poison, ptr %37, 0
  %40 = insertvalue { ptr, i32 } %39, i32 %38, 1
  resume { ptr, i32 } %40

41:                                               ; preds = %30
  %42 = landingpad { ptr, i32 }
          catch ptr null
  %43 = extractvalue { ptr, i32 } %42, 0
  call void @__clang_call_terminate(ptr %43) #20
  unreachable
}